target datalayout = "e-m:e-p270:32:32-p271:32:32-p272:64:64-i64:64-i128:128-f80:128-n8:16:32:64-S128"
target triple = "x86_64-pc-linux-gnu"

@.str.8 = private unnamed_addr constant [18 x i8] c"CBOR Item Decoder\00", align 1
@.str.9 = private unnamed_addr constant [11 x i8] c"_ws.wscbor\00", align 1
@proto_wscbor = internal global i32 0, align 4

; Function Attrs: null_pointer_is_valid sspstrong uwtable
define void @wscbor_init() #0 {
  %1 = alloca ptr, align 8
  %2 = call i32 @proto_register_protocol(ptr noundef @.str.8, ptr noundef @.str.8, ptr noundef @.str.9)
  store i32 %2, ptr @proto_wscbor, align 4
  call void @llvm.lifetime.start.p0(i64 8, ptr %1) #7
  %3 = load i32, ptr @proto_wscbor, align 4
  %4 = call ptr @expert_register_protocol(i32 noundef %3)
  store ptr %4, ptr %1, align 8
  %5 = load i32, ptr @proto_wscbor, align 4
  call void @proto_set_cant_toggle(i32 noundef %5)
  %6 = load ptr, ptr %1, align 8
  call void @expert_register_field_array(ptr noundef %6, ptr noundef @expertitems, i32 noundef 5)
  call void @llvm.lifetime.end.p0(i64 8, ptr %1) #7
  ret void
}