; Function Attrs: null_pointer_is_valid sspstrong uwtable
define void @wscbor_init() local_unnamed_addr #0 {
  %1 = tail call i32 @proto_register_protocol(ptr noundef nonnull @.str.8, ptr noundef nonnull @.str.8, ptr noundef nonnull @.str.9)
  store i32 %1, ptr @proto_wscbor, align 4
  %2 = tail call ptr @expert_register_protocol(i32 noundef %1)
  %3 = load i32, ptr @proto_wscbor, align 4
  tail call void @proto_set_cant_toggle(i32 noundef %3)
  tail call void @expert_register_field_array(ptr noundef %2, ptr noundef nonnull @expertitems, i32 noundef 5)
  ret void
}